target datalayout = "e-m:e-p270:32:32-p271:32:32-p272:64:64-i64:64-i128:128-f80:128-n8:16:32:64-S128"
target triple = "x86_64-pc-linux-gnu"

%class.QString = type { %struct.QArrayDataPointer }
%struct.QArrayDataPointer = type { ptr, ptr, i64 }
%class.LteRlcGraphDialog = type <{ %class.WiresharkDialog.base, [3 x i8], ptr, i8, [7 x i8], ptr, %class.QPoint, ptr, %struct.rlc_graph, %class.QMultiMap, %class.QMap, ptr, ptr, ptr, ptr, ptr, i32, [4 x i8] }>
%class.WiresharkDialog.base = type <{ %class.GeometryStateDialog, ptr, i8, [7 x i8], %class.QString, %class.QList, i32, i8 }>
%class.GeometryStateDialog = type { %class.QDialog, %class.QString }
%class.QDialog = type { %class.QWidget }
%class.QWidget = type { %class.QObject, %class.QPaintDevice.base, ptr }
%class.QObject = type { ptr, %class.QScopedPointer }
%class.QScopedPointer = type { ptr }
%class.QPaintDevice.base = type <{ ptr, i16 }>
%class.QList = type { %struct.QArrayDataPointer.0 }
%struct.QArrayDataPointer.0 = type { ptr, ptr, i64 }
%class.QPoint = type { i32, i32 }
%struct.rlc_graph = type { ptr, ptr, i32, i8, i16, i16, i16, i8, i8 }
%class.QMultiMap = type { %"class.QtPrivate::QExplicitlySharedDataPointerV2" }
%"class.QtPrivate::QExplicitlySharedDataPointerV2" = type { ptr }
%class.QMap = type { %"class.QtPrivate::QExplicitlySharedDataPointerV2.1" }
%"class.QtPrivate::QExplicitlySharedDataPointerV2.1" = type { ptr }
%class.Ui_LteRlcGraphDialog = type { ptr, ptr, ptr, ptr, ptr, ptr, ptr, ptr, ptr, ptr, ptr, ptr, ptr, ptr, ptr, ptr, ptr, ptr, ptr, ptr, ptr, ptr, ptr, ptr, ptr, ptr, ptr, ptr, ptr, ptr, ptr, ptr }
%class.QCustomPlot = type <{ %class.QWidget, ptr, ptr, ptr, ptr, ptr, %class.QRect, double, ptr, i8, [7 x i8], %class.QList.15, %class.QList.19, %class.QList.23, %class.QList.27, %class.QFlags.14, %class.QFlags.14, %class.QFlags.31, i32, i8, [7 x i8], %class.QBrush, %class.QPixmap, %class.QPixmap, i8, [3 x i8], i32, ptr, %class.QFlags.35, i32, i32, [4 x i8], ptr, i8, [7 x i8], %class.QList.36, %class.QPoint, i8, [7 x i8], %class.QPointer, %class.QPointer, %class.QVariant, %class.QVariant, i8, i8, [6 x i8], double, double, i32, %class.QFlags.14, i8, [7 x i8] }>
%class.QRect = type { i32, i32, i32, i32 }
%class.QList.15 = type { %struct.QArrayDataPointer.18 }
%struct.QArrayDataPointer.18 = type { ptr, ptr, i64 }
%class.QList.19 = type { %struct.QArrayDataPointer.22 }
%struct.QArrayDataPointer.22 = type { ptr, ptr, i64 }
%class.QList.23 = type { %struct.QArrayDataPointer.26 }
%struct.QArrayDataPointer.26 = type { ptr, ptr, i64 }
%class.QList.27 = type { %struct.QArrayDataPointer.30 }
%struct.QArrayDataPointer.30 = type { ptr, ptr, i64 }
%class.QFlags.31 = type { i32 }
%class.QBrush = type { %"class.std::unique_ptr" }
%"class.std::unique_ptr" = type { %"struct.std::__uniq_ptr_data" }
%"struct.std::__uniq_ptr_data" = type { %"class.std::__uniq_ptr_impl" }
%"class.std::__uniq_ptr_impl" = type { %"class.std::tuple" }
%"class.std::tuple" = type { %"struct.std::_Tuple_impl" }
%"struct.std::_Tuple_impl" = type { %"struct.std::_Head_base.33" }
%"struct.std::_Head_base.33" = type { ptr }
%class.QPixmap = type { %class.QPaintDevice.base, %class.QExplicitlySharedDataPointer.34 }
%class.QExplicitlySharedDataPointer.34 = type { ptr }
%class.QFlags.35 = type { i32 }
%class.QList.36 = type { %struct.QArrayDataPointer.39 }
%struct.QArrayDataPointer.39 = type { ptr, ptr, i64 }
%class.QPointer = type { %class.QWeakPointer }
%class.QWeakPointer = type { ptr, ptr }
%class.QVariant = type { %"struct.QVariant::Private" }
%"struct.QVariant::Private" = type { %union.anon, i64 }
%union.anon = type { ptr, [16 x i8] }
%class.QFlags.14 = type { i32 }
%class.QFont = type <{ %class.QExplicitlySharedDataPointer, i32, [4 x i8] }>
%class.QExplicitlySharedDataPointer = type { ptr }
%struct.QLatin1Char = type { i8 }
%class.QPen = type { ptr }
%class.QColor = type <{ i32, %"union.QColor::CT", [2 x i8] }>
%"union.QColor::CT" = type { %struct.anon }
%struct.anon = type { i16, i16, i16, i16, i16 }
%class.QList.6 = type { %struct.QArrayDataPointer.9 }
%struct.QArrayDataPointer.9 = type { ptr, ptr, i64 }
%class.QCPLayerable.base = type <{ %class.QObject, i8, [7 x i8], ptr, %class.QPointer, ptr, i8 }>
%class.QCPRange = type { double, double }
%class.QCPAxis = type { %class.QCPLayerable.base, i32, ptr, i32, i32, %class.QFlags, %class.QFlags, %class.QPen, %class.QPen, %class.QString, %class.QFont, %class.QFont, %class.QColor, %class.QColor, i8, [7 x i8], %class.QFont, %class.QFont, %class.QColor, %class.QColor, i32, %struct.QLatin1Char, i8, i8, i8, %class.QPen, %class.QPen, %class.QPen, %class.QPen, %class.QCPRange, i8, i32, ptr, ptr, %class.QSharedPointer, %class.QList.6, %class.QList.10, %class.QList.6, i8, i32, i8, %class.QCPRange, %class.QFlags.14, %class.QFlags.14 }
%class.QFlags = type { i32 }
%class.QSharedPointer = type { ptr, ptr }
%class.QList.10 = type { %struct.QArrayDataPointer.13 }
%struct.QArrayDataPointer.13 = type { ptr, ptr, i64 }
%class.QCPLayoutElement = type { %class.QCPLayerable.base, ptr, %class.QSize, %class.QSize, i32, %class.QRect, %class.QRect, %class.QMargins, %class.QMargins, %class.QFlags.66, %class.QHash }
%class.QSize = type { i32, i32 }
%class.QMargins = type { i32, i32, i32, i32 }
%class.QFlags.66 = type { i32 }
%class.QHash = type { ptr }

; Function Attrs: mustprogress nounwind uwtable
define linkonce_odr noundef i32 @_ZNK5QRect6heightEv(ptr noundef nonnull align 4 dereferenceable(16) %0) #3 comdat align 2 {
  %2 = alloca ptr, align 8
  store ptr %0, ptr %2, align 8
  %3 = load ptr, ptr %2, align 8
  %4 = getelementptr inbounds %class.QRect, ptr %3, i32 0, i32 3
  %5 = load i32, ptr %4, align 4
  %6 = getelementptr inbounds %class.QRect, ptr %3, i32 0, i32 1
  %7 = load i32, ptr %6, align 4
  %8 = sub i32 %5, %7
  %9 = add i32 %8, 1
  ret i32 %9
}

; Function Attrs: mustprogress nounwind uwtable
define linkonce_odr noundef i32 @_ZNK5QRect5widthEv(ptr noundef nonnull align 4 dereferenceable(16) %0) #3 comdat align 2 {
  %2 = alloca ptr, align 8
  store ptr %0, ptr %2, align 8
  %3 = load ptr, ptr %2, align 8
  %4 = getelementptr inbounds %class.QRect, ptr %3, i32 0, i32 2
  %5 = load i32, ptr %4, align 4
  %6 = getelementptr inbounds %class.QRect, ptr %3, i32 0, i32 0
  %7 = load i32, ptr %6, align 4
  %8 = sub i32 %5, %7
  %9 = add i32 %8, 1
  ret i32 %9
}

; Function Attrs: mustprogress nounwind uwtable
define linkonce_odr noundef i32 @_ZNK11QCPAxisRect6heightEv(ptr noundef nonnull align 8 dereferenceable(432) %0) #3 comdat align 2 {
  %2 = alloca ptr, align 8
  store ptr %0, ptr %2, align 8
  %3 = load ptr, ptr %2, align 8
  %4 = getelementptr inbounds %class.QCPLayoutElement, ptr %3, i32 0, i32 5
  %5 = call noundef i32 @_ZNK5QRect6heightEv(ptr noundef nonnull align 4 dereferenceable(16) %4) #17
  ret i32 %5
}

; Function Attrs: mustprogress nounwind uwtable
define linkonce_odr noundef i32 @_ZNK11QCPAxisRect5widthEv(ptr noundef nonnull align 8 dereferenceable(432) %0) #3 comdat align 2 {
  %2 = alloca ptr, align 8
  store ptr %0, ptr %2, align 8
  %3 = load ptr, ptr %2, align 8
  %4 = getelementptr inbounds %class.QCPLayoutElement, ptr %3, i32 0, i32 5
  %5 = call noundef i32 @_ZNK5QRect5widthEv(ptr noundef nonnull align 4 dereferenceable(16) %4) #17
  ret i32 %5
}

; Function Attrs: mustprogress nounwind uwtable
define linkonce_odr noundef ptr @_ZNK7QCPAxis8axisRectEv(ptr noundef nonnull align 8 dereferenceable(472) %0) #3 comdat align 2 {
  %2 = alloca ptr, align 8
  store ptr %0, ptr %2, align 8
  %3 = load ptr, ptr %2, align 8
  %4 = getelementptr inbounds %class.QCPAxis, ptr %3, i32 0, i32 2
  %5 = load ptr, ptr %4, align 8
  ret ptr %5
}

; Function Attrs: mustprogress nounwind uwtable
define linkonce_odr noundef double @_ZNK8QCPRange4sizeEv(ptr noundef nonnull align 8 dereferenceable(16) %0) #3 comdat align 2 {
  %2 = alloca ptr, align 8
  store ptr %0, ptr %2, align 8
  %3 = load ptr, ptr %2, align 8
  %4 = getelementptr inbounds %class.QCPRange, ptr %3, i32 0, i32 1
  %5 = load double, ptr %4, align 8
  %6 = getelementptr inbounds %class.QCPRange, ptr %3, i32 0, i32 0
  %7 = load double, ptr %6, align 8
  %8 = fsub double %5, %7
  ret double %8
}

; Function Attrs: mustprogress nounwind uwtable
define linkonce_odr { double, double } @_ZNK7QCPAxis5rangeEv(ptr noundef nonnull align 8 dereferenceable(472) %0) #3 comdat align 2 {
  %2 = alloca %class.QCPRange, align 8
  %3 = alloca ptr, align 8
  store ptr %0, ptr %3, align 8
  %4 = load ptr, ptr %3, align 8
  %5 = getelementptr inbounds %class.QCPAxis, ptr %4, i32 0, i32 29
  call void @llvm.memcpy.p0.p0.i64(ptr align 8 %2, ptr align 8 %5, i64 16, i1 false)
  %6 = load { double, double }, ptr %2, align 8
  ret { double, double } %6
}

; Function Attrs: mustprogress uwtable
define void @_ZN17LteRlcGraphDialog7panAxesEii(ptr noundef nonnull align 8 dereferenceable(268) %0, i32 noundef %1, i32 noundef %2) #0 align 2 {
  %4 = alloca ptr, align 8
  %5 = alloca i32, align 4
  %6 = alloca i32, align 4
  %7 = alloca ptr, align 8
  %8 = alloca double, align 8
  %9 = alloca double, align 8
  %10 = alloca %class.QCPRange, align 8
  %11 = alloca %class.QCPRange, align 8
  %12 = alloca %class.QCPRange, align 8
  %13 = alloca %class.QCPRange, align 8
  %14 = alloca %class.QCPRange, align 8
  store ptr %0, ptr %4, align 8
  store i32 %1, ptr %5, align 4
  store i32 %2, ptr %6, align 4
  %15 = load ptr, ptr %4, align 8
  %16 = getelementptr inbounds %class.LteRlcGraphDialog, ptr %15, i32 0, i32 2
  %17 = load ptr, ptr %16, align 8
  %18 = getelementptr inbounds %class.Ui_LteRlcGraphDialog, ptr %17, i32 0, i32 22
  %19 = load ptr, ptr %18, align 8
  store ptr %19, ptr %7, align 8
  store double 0.000000e+00, ptr %8, align 8
  store double 0.000000e+00, ptr %9, align 8
  %20 = load i32, ptr %6, align 4
  %21 = icmp sgt i32 %20, 0
  br i1 %21, label %22, label %34

22:                                               ; preds = %3
  %23 = load ptr, ptr %7, align 8
  %24 = getelementptr inbounds %class.QCustomPlot, ptr %23, i32 0, i32 2
  %25 = load ptr, ptr %24, align 8
  %26 = call { double, double } @_ZNK7QCPAxis5rangeEv(ptr noundef nonnull align 8 dereferenceable(472) %25)
  %27 = getelementptr inbounds { double, double }, ptr %10, i32 0, i32 0
  %28 = extractvalue { double, double } %26, 0
  store double %28, ptr %27, align 8
  %29 = getelementptr inbounds { double, double }, ptr %10, i32 0, i32 1
  %30 = extractvalue { double, double } %26, 1
  store double %30, ptr %29, align 8
  %31 = getelementptr inbounds %class.QCPRange, ptr %10, i32 0, i32 1
  %32 = load double, ptr %31, align 8
  %33 = fcmp ogt double %32, 6.553600e+04
  br i1 %33, label %51, label %34

34:                                               ; preds = %22, %3
  %35 = load i32, ptr %6, align 4
  %36 = icmp slt i32 %35, 0
  br i1 %36, label %37, label %49

37:                                               ; preds = %34
  %38 = load ptr, ptr %7, align 8
  %39 = getelementptr inbounds %class.QCustomPlot, ptr %38, i32 0, i32 2
  %40 = load ptr, ptr %39, align 8
  %41 = call { double, double } @_ZNK7QCPAxis5rangeEv(ptr noundef nonnull align 8 dereferenceable(472) %40)
  %42 = getelementptr inbounds { double, double }, ptr %11, i32 0, i32 0
  %43 = extractvalue { double, double } %41, 0
  store double %43, ptr %42, align 8
  %44 = getelementptr inbounds { double, double }, ptr %11, i32 0, i32 1
  %45 = extractvalue { double, double } %41, 1
  store double %45, ptr %44, align 8
  %46 = getelementptr inbounds %class.QCPRange, ptr %11, i32 0, i32 0
  %47 = load double, ptr %46, align 8
  %48 = fcmp olt double %47, 0.000000e+00
  br label %49

49:                                               ; preds = %37, %34
  %50 = phi i1 [ false, %34 ], [ %48, %37 ]
  br label %51

51:                                               ; preds = %49, %22
  %52 = phi i1 [ true, %22 ], [ %50, %49 ]
  br i1 %52, label %53, label %54

53:                                               ; preds = %51
  br label %128

54:                                               ; preds = %51
  %55 = load i32, ptr %5, align 4
  %56 = icmp slt i32 %55, 0
  br i1 %56, label %57, label %69

57:                                               ; preds = %54
  %58 = load ptr, ptr %7, align 8
  %59 = getelementptr inbounds %class.QCustomPlot, ptr %58, i32 0, i32 1
  %60 = load ptr, ptr %59, align 8
  %61 = call { double, double } @_ZNK7QCPAxis5rangeEv(ptr noundef nonnull align 8 dereferenceable(472) %60)
  %62 = getelementptr inbounds { double, double }, ptr %12, i32 0, i32 0
  %63 = extractvalue { double, double } %61, 0
  store double %63, ptr %62, align 8
  %64 = getelementptr inbounds { double, double }, ptr %12, i32 0, i32 1
  %65 = extractvalue { double, double } %61, 1
  store double %65, ptr %64, align 8
  %66 = getelementptr inbounds %class.QCPRange, ptr %12, i32 0, i32 0
  %67 = load double, ptr %66, align 8
  %68 = fcmp olt double %67, 0.000000e+00
  br label %69

69:                                               ; preds = %57, %54
  %70 = phi i1 [ false, %54 ], [ %68, %57 ]
  br i1 %70, label %71, label %72

71:                                               ; preds = %69
  br label %128

72:                                               ; preds = %69
  %73 = load ptr, ptr %7, align 8
  %74 = getelementptr inbounds %class.QCustomPlot, ptr %73, i32 0, i32 1
  %75 = load ptr, ptr %74, align 8
  %76 = call { double, double } @_ZNK7QCPAxis5rangeEv(ptr noundef nonnull align 8 dereferenceable(472) %75)
  %77 = getelementptr inbounds { double, double }, ptr %13, i32 0, i32 0
  %78 = extractvalue { double, double } %76, 0
  store double %78, ptr %77, align 8
  %79 = getelementptr inbounds { double, double }, ptr %13, i32 0, i32 1
  %80 = extractvalue { double, double } %76, 1
  store double %80, ptr %79, align 8
  %81 = call noundef double @_ZNK8QCPRange4sizeEv(ptr noundef nonnull align 8 dereferenceable(16) %13)
  %82 = load i32, ptr %5, align 4
  %83 = sitofp i32 %82 to double
  %84 = fmul double %81, %83
  %85 = load ptr, ptr %7, align 8
  %86 = getelementptr inbounds %class.QCustomPlot, ptr %85, i32 0, i32 1
  %87 = load ptr, ptr %86, align 8
  %88 = call noundef ptr @_ZNK7QCPAxis8axisRectEv(ptr noundef nonnull align 8 dereferenceable(472) %87)
  %89 = call noundef i32 @_ZNK11QCPAxisRect5widthEv(ptr noundef nonnull align 8 dereferenceable(432) %88)
  %90 = sitofp i32 %89 to double
  %91 = fdiv double %84, %90
  store double %91, ptr %8, align 8
  %92 = load ptr, ptr %7, align 8
  %93 = getelementptr inbounds %class.QCustomPlot, ptr %92, i32 0, i32 2
  %94 = load ptr, ptr %93, align 8
  %95 = call { double, double } @_ZNK7QCPAxis5rangeEv(ptr noundef nonnull align 8 dereferenceable(472) %94)
  %96 = getelementptr inbounds { double, double }, ptr %14, i32 0, i32 0
  %97 = extractvalue { double, double } %95, 0
  store double %97, ptr %96, align 8
  %98 = getelementptr inbounds { double, double }, ptr %14, i32 0, i32 1
  %99 = extractvalue { double, double } %95, 1
  store double %99, ptr %98, align 8
  %100 = call noundef double @_ZNK8QCPRange4sizeEv(ptr noundef nonnull align 8 dereferenceable(16) %14)
  %101 = load i32, ptr %6, align 4
  %102 = sitofp i32 %101 to double
  %103 = fmul double %100, %102
  %104 = load ptr, ptr %7, align 8
  %105 = getelementptr inbounds %class.QCustomPlot, ptr %104, i32 0, i32 2
  %106 = load ptr, ptr %105, align 8
  %107 = call noundef ptr @_ZNK7QCPAxis8axisRectEv(ptr noundef nonnull align 8 dereferenceable(472) %106)
  %108 = call noundef i32 @_ZNK11QCPAxisRect6heightEv(ptr noundef nonnull align 8 dereferenceable(432) %107)
  %109 = sitofp i32 %108 to double
  %110 = fdiv double %103, %109
  store double %110, ptr %9, align 8
  %111 = load double, ptr %8, align 8
  %112 = fcmp une double %111, 0.000000e+00
  br i1 %112, label %113, label %119

113:                                              ; preds = %72
  %114 = load ptr, ptr %7, align 8
  %115 = getelementptr inbounds %class.QCustomPlot, ptr %114, i32 0, i32 1
  %116 = load ptr, ptr %115, align 8
  %117 = load double, ptr %8, align 8
  call void @_ZN7QCPAxis9moveRangeEd(ptr noundef nonnull align 8 dereferenceable(472) %116, double noundef %117)
  %118 = load ptr, ptr %7, align 8
  call void @_ZN11QCustomPlot6replotENS_15RefreshPriorityE(ptr noundef nonnull align 8 dereferenceable(513) %118, i32 noundef 3)
  br label %119

119:                                              ; preds = %113, %72
  %120 = load double, ptr %9, align 8
  %121 = fcmp une double %120, 0.000000e+00
  br i1 %121, label %122, label %128

122:                                              ; preds = %119
  %123 = load ptr, ptr %7, align 8
  %124 = getelementptr inbounds %class.QCustomPlot, ptr %123, i32 0, i32 2
  %125 = load ptr, ptr %124, align 8
  %126 = load double, ptr %9, align 8
  call void @_ZN7QCPAxis9moveRangeEd(ptr noundef nonnull align 8 dereferenceable(472) %125, double noundef %126)
  %127 = load ptr, ptr %7, align 8
  call void @_ZN11QCustomPlot6replotENS_15RefreshPriorityE(ptr noundef nonnull align 8 dereferenceable(513) %127, i32 noundef 3)
  br label %128

128:                                              ; preds = %122, %119, %71, %53
  ret void
}