; Function Attrs: mustprogress uwtable
define void @_ZN17LteRlcGraphDialog7panAxesEii(ptr nocapture noundef nonnull readonly align 8 dereferenceable(268) %0, i32 noundef %1, i32 noundef %2) local_unnamed_addr #0 align 2 {
  %4 = getelementptr inbounds i8, ptr %0, i64 136
  %5 = load ptr, ptr %4, align 8
  %6 = getelementptr inbounds i8, ptr %5, i64 176
  %7 = load ptr, ptr %6, align 8
  %8 = icmp sgt i32 %2, 0
  br i1 %8, label %9, label %13

9:                                                ; preds = %3
  %10 = getelementptr inbounds i8, ptr %7, i64 48
  %11 = load ptr, ptr %10, align 8
  %.sroa.2.0..sroa_idx.i = getelementptr inbounds i8, ptr %11, i64 312
  %.sroa.2.0.copyload.i = load double, ptr %.sroa.2.0..sroa_idx.i, align 8
  %12 = fcmp ogt double %.sroa.2.0.copyload.i, 6.553600e+04
  br i1 %12, label %.critedge, label %.critedge2

13:                                               ; preds = %3
  %14 = icmp slt i32 %2, 0
  br i1 %14, label %15, label %.critedge2

15:                                               ; preds = %13
  %16 = getelementptr inbounds i8, ptr %7, i64 48
  %17 = load ptr, ptr %16, align 8
  %18 = getelementptr inbounds i8, ptr %17, i64 304
  %.sroa.0.0.copyload.i28 = load double, ptr %18, align 8
  %19 = fcmp olt double %.sroa.0.0.copyload.i28, 0.000000e+00
  br i1 %19, label %.critedge, label %.critedge2

.critedge2:                                       ; preds = %9, %13, %15
  %20 = icmp slt i32 %1, 0
  %21 = getelementptr inbounds i8, ptr %7, i64 40
  %22 = load ptr, ptr %21, align 8
  %23 = getelementptr inbounds i8, ptr %22, i64 304
  %.sroa.0.0.copyload.i33 = load double, ptr %23, align 8
  %24 = fcmp olt double %.sroa.0.0.copyload.i33, 0.000000e+00
  %or.cond = select i1 %20, i1 %24, i1 false
  br i1 %or.cond, label %.critedge, label %.critedge4

.critedge4:                                       ; preds = %.critedge2
  %.sroa.2.0..sroa_idx.i39 = getelementptr inbounds i8, ptr %22, i64 312
  %.sroa.2.0.copyload.i40 = load double, ptr %.sroa.2.0..sroa_idx.i39, align 8
  %25 = fsub double %.sroa.2.0.copyload.i40, %.sroa.0.0.copyload.i33
  %26 = sitofp i32 %1 to double
  %27 = fmul double %25, %26
  %28 = getelementptr inbounds i8, ptr %22, i64 64
  %29 = load ptr, ptr %28, align 8
  %30 = getelementptr inbounds i8, ptr %29, i64 92
  %31 = getelementptr inbounds i8, ptr %29, i64 100
  %32 = load i32, ptr %31, align 4
  %33 = load i32, ptr %30, align 4
  %34 = add i32 %32, 1
  %35 = sub i32 %34, %33
  %36 = sitofp i32 %35 to double
  %37 = fdiv double %27, %36
  %38 = getelementptr inbounds i8, ptr %7, i64 48
  %39 = load ptr, ptr %38, align 8
  %40 = getelementptr inbounds i8, ptr %39, i64 304
  %.sroa.0.0.copyload.i43 = load double, ptr %40, align 8
  %.sroa.2.0..sroa_idx.i44 = getelementptr inbounds i8, ptr %39, i64 312
  %.sroa.2.0.copyload.i45 = load double, ptr %.sroa.2.0..sroa_idx.i44, align 8
  %41 = fsub double %.sroa.2.0.copyload.i45, %.sroa.0.0.copyload.i43
  %42 = sitofp i32 %2 to double
  %43 = fmul double %41, %42
  %44 = getelementptr inbounds i8, ptr %39, i64 64
  %45 = load ptr, ptr %44, align 8
  %46 = getelementptr inbounds i8, ptr %45, i64 104
  %47 = load i32, ptr %46, align 4
  %48 = getelementptr inbounds i8, ptr %45, i64 96
  %49 = load i32, ptr %48, align 4
  %50 = add i32 %47, 1
  %51 = sub i32 %50, %49
  %52 = sitofp i32 %51 to double
  %53 = fdiv double %43, %52
  %54 = fcmp une double %37, 0.000000e+00
  br i1 %54, label %55, label %56

55:                                               ; preds = %.critedge4
  tail call void @_ZN7QCPAxis9moveRangeEd(ptr noundef nonnull align 8 dereferenceable(472) %22, double noundef %37)
  tail call void @_ZN11QCustomPlot6replotENS_15RefreshPriorityE(ptr noundef nonnull align 8 dereferenceable(513) %7, i32 noundef 3)
  br label %56

56:                                               ; preds = %55, %.critedge4
  %57 = fcmp une double %53, 0.000000e+00
  br i1 %57, label %58, label %.critedge

58:                                               ; preds = %56
  %59 = load ptr, ptr %38, align 8
  tail call void @_ZN7QCPAxis9moveRangeEd(ptr noundef nonnull align 8 dereferenceable(472) %59, double noundef %53)
  tail call void @_ZN11QCustomPlot6replotENS_15RefreshPriorityE(ptr noundef nonnull align 8 dereferenceable(513) %7, i32 noundef 3)
  br label %.critedge

.critedge:                                        ; preds = %.critedge2, %9, %15, %58, %56
  ret void
}